target datalayout = "e-m:e-p270:32:32-p271:32:32-p272:64:64-i64:64-i128:128-f80:128-n8:16:32:64-S128"
target triple = "x86_64-pc-linux-gnu"

%struct.ExprContext = type { i32, ptr, ptr, ptr, ptr, ptr, ptr, ptr, ptr, ptr, i64, i8, i64, i8, ptr, ptr, ptr, ptr }
%struct.FunctionCallInfoBaseData = type { ptr, ptr, ptr, i32, i8, i16, [0 x %struct.NullableDatum] }
%struct.NullableDatum = type { i64, i8 }
%struct.FmgrInfo = type { ptr, i32, i16, i8, i8, i8, ptr, ptr, ptr }
%struct.AggStatePerGroupData = type { i64, i8, i8 }
%struct.AggStatePerTransData = type { ptr, i8, i8, i32, i32, i32, i32, i32, i32, %struct.FmgrInfo, %struct.FmgrInfo, %struct.FmgrInfo, i32, i32, i32, ptr, ptr, ptr, ptr, %struct.FmgrInfo, ptr, i64, i8, i16, i16, i8, i8, ptr, ptr, ptr, i64, i8, i8, ptr, ptr, ptr, ptr }

@CurrentMemoryContext = external global ptr, align 8

; Function Attrs: inlinehint nounwind uwtable
define internal ptr @MemoryContextSwitchTo(ptr noundef %0) #2 {
  %2 = alloca ptr, align 8
  %3 = alloca ptr, align 8
  store ptr %0, ptr %2, align 8
  call void @llvm.lifetime.start.p0(i64 8, ptr %3) #11
  %4 = load ptr, ptr @CurrentMemoryContext, align 8
  store ptr %4, ptr %3, align 8
  %5 = load ptr, ptr %2, align 8
  store ptr %5, ptr @CurrentMemoryContext, align 8
  %6 = load ptr, ptr %3, align 8
  call void @llvm.lifetime.end.p0(i64 8, ptr %3) #11
  ret ptr %6
}

; Function Attrs: nounwind uwtable
define dso_local void @ExecAggInitGroup(ptr noundef %0, ptr noundef %1, ptr noundef %2, ptr noundef %3) #0 {
  %5 = alloca ptr, align 8
  %6 = alloca ptr, align 8
  %7 = alloca ptr, align 8
  %8 = alloca ptr, align 8
  %9 = alloca ptr, align 8
  %10 = alloca ptr, align 8
  store ptr %0, ptr %5, align 8
  store ptr %1, ptr %6, align 8
  store ptr %2, ptr %7, align 8
  store ptr %3, ptr %8, align 8
  call void @llvm.lifetime.start.p0(i64 8, ptr %9) #11
  %11 = load ptr, ptr %6, align 8
  %12 = getelementptr inbounds nuw %struct.AggStatePerTransData, ptr %11, i32 0, i32 34
  %13 = load ptr, ptr %12, align 8
  store ptr %13, ptr %9, align 8
  call void @llvm.lifetime.start.p0(i64 8, ptr %10) #11
  %14 = load ptr, ptr %8, align 8
  %15 = getelementptr inbounds nuw %struct.ExprContext, ptr %14, i32 0, i32 5
  %16 = load ptr, ptr %15, align 8
  %17 = call ptr @MemoryContextSwitchTo(ptr noundef %16)
  store ptr %17, ptr %10, align 8
  %18 = load ptr, ptr %9, align 8
  %19 = getelementptr inbounds nuw %struct.FunctionCallInfoBaseData, ptr %18, i32 0, i32 6
  %20 = getelementptr inbounds [0 x %struct.NullableDatum], ptr %19, i64 0, i64 1
  %21 = getelementptr inbounds nuw %struct.NullableDatum, ptr %20, i32 0, i32 0
  %22 = load i64, ptr %21, align 8
  %23 = load ptr, ptr %6, align 8
  %24 = getelementptr inbounds nuw %struct.AggStatePerTransData, ptr %23, i32 0, i32 26
  %25 = load i8, ptr %24, align 1, !range !7, !noundef !8
  %26 = trunc i8 %25 to i1
  %27 = load ptr, ptr %6, align 8
  %28 = getelementptr inbounds nuw %struct.AggStatePerTransData, ptr %27, i32 0, i32 24
  %29 = load i16, ptr %28, align 4
  %30 = sext i16 %29 to i32
  %31 = call i64 @datumCopy(i64 noundef %22, i1 noundef zeroext %26, i32 noundef %30)
  %32 = load ptr, ptr %7, align 8
  %33 = getelementptr inbounds nuw %struct.AggStatePerGroupData, ptr %32, i32 0, i32 0
  store i64 %31, ptr %33, align 8
  %34 = load ptr, ptr %7, align 8
  %35 = getelementptr inbounds nuw %struct.AggStatePerGroupData, ptr %34, i32 0, i32 1
  store i8 0, ptr %35, align 8
  %36 = load ptr, ptr %7, align 8
  %37 = getelementptr inbounds nuw %struct.AggStatePerGroupData, ptr %36, i32 0, i32 2
  store i8 0, ptr %37, align 1
  %38 = load ptr, ptr %10, align 8
  %39 = call ptr @MemoryContextSwitchTo(ptr noundef %38)
  call void @llvm.lifetime.end.p0(i64 8, ptr %10) #11
  call void @llvm.lifetime.end.p0(i64 8, ptr %9) #11
  ret void
}