; Function Attrs: nounwind uwtable
define dso_local void @ExecAggInitGroup(ptr noundef readnone captures(none) %0, ptr noundef readonly captures(none) %1, ptr noundef writeonly captures(none) initializes((0, 10)) %2, ptr noundef readonly captures(none) %3) local_unnamed_addr #0 {
  %5 = getelementptr inbounds nuw i8, ptr %1, i64 352
  %6 = load ptr, ptr %5, align 8
  %7 = getelementptr inbounds nuw i8, ptr %3, i64 40
  %8 = load ptr, ptr %7, align 8
  %9 = load ptr, ptr @CurrentMemoryContext, align 8
  store ptr %8, ptr @CurrentMemoryContext, align 8
  %10 = getelementptr inbounds nuw i8, ptr %6, i64 48
  %11 = load i64, ptr %10, align 8
  %12 = getelementptr inbounds nuw i8, ptr %1, i64 303
  %13 = load i8, ptr %12, align 1, !range !8, !noundef !9
  %14 = trunc nuw i8 %13 to i1
  %15 = getelementptr inbounds nuw i8, ptr %1, i64 300
  %16 = load i16, ptr %15, align 4
  %17 = sext i16 %16 to i32
  %18 = tail call i64 @datumCopy(i64 noundef %11, i1 noundef zeroext %14, i32 noundef %17) #18
  store i64 %18, ptr %2, align 8
  %19 = getelementptr inbounds nuw i8, ptr %2, i64 8
  store i8 0, ptr %19, align 8
  %20 = getelementptr inbounds nuw i8, ptr %2, i64 9
  store i8 0, ptr %20, align 1
  store ptr %9, ptr @CurrentMemoryContext, align 8
  ret void
}